target datalayout = "e-m:e-p270:32:32-p271:32:32-p272:64:64-i64:64-i128:128-f80:128-n8:16:32:64-S128"
target triple = "x86_64-pc-linux-gnu"

%"class.std::__shared_count" = type { ptr }
%"struct.cv::Ptr.24" = type { %"class.std::shared_ptr.25" }
%"class.std::shared_ptr.25" = type { %"class.std::__shared_ptr.26" }
%"class.std::__shared_ptr.26" = type { ptr, %"class.std::__shared_count" }
%"struct.cv::Ptr.28" = type { %"class.std::shared_ptr.29" }
%"class.std::shared_ptr.29" = type { %"class.std::__shared_ptr.30" }
%"class.std::__shared_ptr.30" = type { ptr, %"class.std::__shared_count" }
%"struct.cv::Ptr.0" = type { %"class.std::shared_ptr.1" }
%"class.std::shared_ptr.1" = type { %"class.std::__shared_ptr.2" }
%"class.std::__shared_ptr.2" = type { ptr, %"class.std::__shared_count" }
%"struct.cv::Ptr.12" = type { %"class.std::shared_ptr.13" }
%"class.std::shared_ptr.13" = type { %"class.std::__shared_ptr.14" }
%"class.std::__shared_ptr.14" = type { ptr, %"class.std::__shared_count" }
%"struct.cv::Ptr.4" = type { %"class.std::shared_ptr.5" }
%"class.std::shared_ptr.5" = type { %"class.std::__shared_ptr.6" }
%"class.std::__shared_ptr.6" = type { ptr, %"class.std::__shared_count" }
%"struct.cv::Ptr.8" = type { %"class.std::shared_ptr.9" }
%"class.std::shared_ptr.9" = type { %"class.std::__shared_ptr.10" }
%"class.std::__shared_ptr.10" = type { ptr, %"class.std::__shared_count" }
%"struct.cv::Ptr.16" = type { %"class.std::shared_ptr.17" }
%"class.std::shared_ptr.17" = type { %"class.std::__shared_ptr.18" }
%"class.std::__shared_ptr.18" = type { ptr, %"class.std::__shared_count" }
%"struct.cv::Ptr.20" = type { %"class.std::shared_ptr.21" }
%"class.std::shared_ptr.21" = type { %"class.std::__shared_ptr.22" }
%"class.std::__shared_ptr.22" = type { ptr, %"class.std::__shared_count" }
%"class.cv::Stitcher" = type { double, double, double, double, i32, %"struct.cv::Ptr.0", %"struct.cv::Ptr.4", %"class.cv::UMat", %"struct.cv::Ptr.8", %"struct.cv::Ptr.12", i8, i32, %"struct.cv::Ptr.16", %"struct.cv::Ptr.20", %"struct.cv::Ptr.24", %"struct.cv::Ptr.28", %"class.std::vector", %"class.std::vector", %"class.std::vector.32", %"class.std::vector.37", %"class.std::vector.42", %"class.std::vector", %"class.std::vector.47", %"class.std::vector.52", %"class.cv::UMat", double, double, double, double }
%"class.std::vector.32" = type { %"struct.std::_Vector_base.33" }
%"struct.std::_Vector_base.33" = type { %"struct.std::_Vector_base<cv::Size_<int>, std::allocator<cv::Size_<int>>>::_Vector_impl" }
%"struct.std::_Vector_base<cv::Size_<int>, std::allocator<cv::Size_<int>>>::_Vector_impl" = type { %"struct.std::_Vector_base<cv::Size_<int>, std::allocator<cv::Size_<int>>>::_Vector_impl_data" }
%"struct.std::_Vector_base<cv::Size_<int>, std::allocator<cv::Size_<int>>>::_Vector_impl_data" = type { ptr, ptr, ptr }
%"class.std::vector.37" = type { %"struct.std::_Vector_base.38" }
%"struct.std::_Vector_base.38" = type { %"struct.std::_Vector_base<cv::detail::ImageFeatures, std::allocator<cv::detail::ImageFeatures>>::_Vector_impl" }
%"struct.std::_Vector_base<cv::detail::ImageFeatures, std::allocator<cv::detail::ImageFeatures>>::_Vector_impl" = type { %"struct.std::_Vector_base<cv::detail::ImageFeatures, std::allocator<cv::detail::ImageFeatures>>::_Vector_impl_data" }
%"struct.std::_Vector_base<cv::detail::ImageFeatures, std::allocator<cv::detail::ImageFeatures>>::_Vector_impl_data" = type { ptr, ptr, ptr }
%"class.std::vector.42" = type { %"struct.std::_Vector_base.43" }
%"struct.std::_Vector_base.43" = type { %"struct.std::_Vector_base<cv::detail::MatchesInfo, std::allocator<cv::detail::MatchesInfo>>::_Vector_impl" }
%"struct.std::_Vector_base<cv::detail::MatchesInfo, std::allocator<cv::detail::MatchesInfo>>::_Vector_impl" = type { %"struct.std::_Vector_base<cv::detail::MatchesInfo, std::allocator<cv::detail::MatchesInfo>>::_Vector_impl_data" }
%"struct.std::_Vector_base<cv::detail::MatchesInfo, std::allocator<cv::detail::MatchesInfo>>::_Vector_impl_data" = type { ptr, ptr, ptr }
%"class.std::vector" = type { %"struct.std::_Vector_base" }
%"struct.std::_Vector_base" = type { %"struct.std::_Vector_base<cv::UMat, std::allocator<cv::UMat>>::_Vector_impl" }
%"struct.std::_Vector_base<cv::UMat, std::allocator<cv::UMat>>::_Vector_impl" = type { %"struct.std::_Vector_base<cv::UMat, std::allocator<cv::UMat>>::_Vector_impl_data" }
%"struct.std::_Vector_base<cv::UMat, std::allocator<cv::UMat>>::_Vector_impl_data" = type { ptr, ptr, ptr }
%"class.std::vector.47" = type { %"struct.std::_Vector_base.48" }
%"struct.std::_Vector_base.48" = type { %"struct.std::_Vector_base<int, std::allocator<int>>::_Vector_impl" }
%"struct.std::_Vector_base<int, std::allocator<int>>::_Vector_impl" = type { %"struct.std::_Vector_base<int, std::allocator<int>>::_Vector_impl_data" }
%"struct.std::_Vector_base<int, std::allocator<int>>::_Vector_impl_data" = type { ptr, ptr, ptr }
%"class.std::vector.52" = type { %"struct.std::_Vector_base.53" }
%"struct.std::_Vector_base.53" = type { %"struct.std::_Vector_base<cv::detail::CameraParams, std::allocator<cv::detail::CameraParams>>::_Vector_impl" }
%"struct.std::_Vector_base<cv::detail::CameraParams, std::allocator<cv::detail::CameraParams>>::_Vector_impl" = type { %"struct.std::_Vector_base<cv::detail::CameraParams, std::allocator<cv::detail::CameraParams>>::_Vector_impl_data" }
%"struct.std::_Vector_base<cv::detail::CameraParams, std::allocator<cv::detail::CameraParams>>::_Vector_impl_data" = type { ptr, ptr, ptr }
%"class.cv::UMat" = type { i32, i32, i32, i32, ptr, i32, ptr, i64, %"struct.cv::MatSize", %"struct.cv::MatStep" }
%"struct.cv::MatSize" = type { ptr }
%"struct.cv::MatStep" = type { ptr, [2 x i64] }
%"class.cv::utils::trace::details::Region" = type <{ ptr, i32, [4 x i8] }>

; Function Attrs: mustprogress uwtable
define noundef i32 @_ZN2cv8Stitcher17estimateTransformERKNS_11_InputArrayES3_(ptr noundef nonnull align 8 dereferenceable(560) %0, ptr noundef nonnull align 8 dereferenceable(24) %1, ptr noundef nonnull align 8 dereferenceable(24) %2) #4 align 2 personality ptr @__gxx_personality_v0 {
  %4 = alloca i32, align 4
  %5 = alloca ptr, align 8
  %6 = alloca ptr, align 8
  %7 = alloca ptr, align 8
  %8 = alloca %"class.cv::utils::trace::details::Region", align 8
  %9 = alloca ptr, align 8
  %10 = alloca i32, align 4
  %11 = alloca i32, align 4
  %12 = alloca i32, align 4
  store ptr %0, ptr %5, align 8, !tbaa !95
  store ptr %1, ptr %6, align 8, !tbaa !178
  store ptr %2, ptr %7, align 8, !tbaa !178
  %13 = load ptr, ptr %5, align 8
  call void @llvm.lifetime.start.p0(i64 16, ptr %8) #3
  call void @_ZN2cv5utils5trace7details6RegionC1ERKNS3_21LocationStaticStorageE(ptr noundef nonnull align 8 dereferenceable(12) %8, ptr noundef nonnull align 8 dereferenceable(32) @_ZZN2cv8Stitcher17estimateTransformERKNS_11_InputArrayES3_E25__cv_trace_location_fn104)
  %14 = load ptr, ptr %6, align 8, !tbaa !178
  %15 = getelementptr inbounds nuw %"class.cv::Stitcher", ptr %13, i32 0, i32 16
  invoke void @_ZNK2cv11_InputArray13getUMatVectorERSt6vectorINS_4UMatESaIS2_EE(ptr noundef nonnull align 8 dereferenceable(24) %14, ptr noundef nonnull align 8 dereferenceable(24) %15)
          to label %16 unwind label %25

16:                                               ; preds = %3
  %17 = load ptr, ptr %7, align 8, !tbaa !178
  %18 = getelementptr inbounds nuw %"class.cv::Stitcher", ptr %13, i32 0, i32 17
  invoke void @_ZNK2cv11_InputArray13getUMatVectorERSt6vectorINS_4UMatESaIS2_EE(ptr noundef nonnull align 8 dereferenceable(24) %17, ptr noundef nonnull align 8 dereferenceable(24) %18)
          to label %19 unwind label %25

19:                                               ; preds = %16
  call void @llvm.lifetime.start.p0(i64 4, ptr %11) #3
  %20 = invoke noundef i32 @_ZN2cv8Stitcher11matchImagesEv(ptr noundef nonnull align 8 dereferenceable(560) %13)
          to label %21 unwind label %29

21:                                               ; preds = %19
  store i32 %20, ptr %11, align 4, !tbaa !180
  %22 = icmp ne i32 %20, 0
  br i1 %22, label %23, label %33

23:                                               ; preds = %21
  %24 = load i32, ptr %11, align 4, !tbaa !180
  store i32 %24, ptr %4, align 4
  store i32 1, ptr %12, align 4
  br label %40

25:                                               ; preds = %16, %3
  %26 = landingpad { ptr, i32 }
          cleanup
  %27 = extractvalue { ptr, i32 } %26, 0
  store ptr %27, ptr %9, align 8
  %28 = extractvalue { ptr, i32 } %26, 1
  store i32 %28, ptr %10, align 4
  br label %42

29:                                               ; preds = %33, %19
  %30 = landingpad { ptr, i32 }
          cleanup
  %31 = extractvalue { ptr, i32 } %30, 0
  store ptr %31, ptr %9, align 8
  %32 = extractvalue { ptr, i32 } %30, 1
  store i32 %32, ptr %10, align 4
  call void @llvm.lifetime.end.p0(i64 4, ptr %11) #3
  br label %42

33:                                               ; preds = %21
  %34 = invoke noundef i32 @_ZN2cv8Stitcher20estimateCameraParamsEv(ptr noundef nonnull align 8 dereferenceable(560) %13)
          to label %35 unwind label %29

35:                                               ; preds = %33
  store i32 %34, ptr %11, align 4, !tbaa !180
  %36 = icmp ne i32 %34, 0
  br i1 %36, label %37, label %39

37:                                               ; preds = %35
  %38 = load i32, ptr %11, align 4, !tbaa !180
  store i32 %38, ptr %4, align 4
  store i32 1, ptr %12, align 4
  br label %40

39:                                               ; preds = %35
  store i32 0, ptr %4, align 4
  store i32 1, ptr %12, align 4
  br label %40

40:                                               ; preds = %39, %37, %23
  call void @llvm.lifetime.end.p0(i64 4, ptr %11) #3
  call void @_ZN2cv5utils5trace7details6RegionD2Ev(ptr noundef nonnull align 8 dereferenceable(12) %8) #3
  call void @llvm.lifetime.end.p0(i64 16, ptr %8) #3
  %41 = load i32, ptr %4, align 4
  ret i32 %41

42:                                               ; preds = %29, %25
  call void @_ZN2cv5utils5trace7details6RegionD2Ev(ptr noundef nonnull align 8 dereferenceable(12) %8) #3
  call void @llvm.lifetime.end.p0(i64 16, ptr %8) #3
  br label %43

43:                                               ; preds = %42
  %44 = load ptr, ptr %9, align 8
  %45 = load i32, ptr %10, align 4
  %46 = insertvalue { ptr, i32 } poison, ptr %44, 0
  %47 = insertvalue { ptr, i32 } %46, i32 %45, 1
  resume { ptr, i32 } %47
}