; Function Attrs: mustprogress uwtable
define noundef range(i32 0, 4) i32 @_ZN2cv8Stitcher17estimateTransformERKNS_11_InputArrayES3_(ptr noundef nonnull align 8 dereferenceable(560) %0, ptr noundef nonnull align 8 dereferenceable(24) %1, ptr noundef nonnull align 8 dereferenceable(24) %2) local_unnamed_addr #3 align 2 personality ptr @__gxx_personality_v0 {
  %4 = alloca %"class.cv::utils::trace::details::Region", align 8
  call void @llvm.lifetime.start.p0(i64 16, ptr nonnull %4) #26
  call void @_ZN2cv5utils5trace7details6RegionC1ERKNS3_21LocationStaticStorageE(ptr noundef nonnull align 8 dereferenceable(12) %4, ptr noundef nonnull align 8 dereferenceable(32) @_ZZN2cv8Stitcher17estimateTransformERKNS_11_InputArrayES3_E25__cv_trace_location_fn104)
  %5 = getelementptr inbounds nuw i8, ptr %0, i64 256
  invoke void @_ZNK2cv11_InputArray13getUMatVectorERSt6vectorINS_4UMatESaIS2_EE(ptr noundef nonnull align 8 dereferenceable(24) %1, ptr noundef nonnull align 8 dereferenceable(24) %5)
          to label %6 unwind label %11

6:                                                ; preds = %3
  %7 = getelementptr inbounds nuw i8, ptr %0, i64 280
  invoke void @_ZNK2cv11_InputArray13getUMatVectorERSt6vectorINS_4UMatESaIS2_EE(ptr noundef nonnull align 8 dereferenceable(24) %2, ptr noundef nonnull align 8 dereferenceable(24) %7)
          to label %8 unwind label %11

8:                                                ; preds = %6
  %9 = invoke noundef i32 @_ZN2cv8Stitcher11matchImagesEv(ptr noundef nonnull align 8 dereferenceable(560) %0)
          to label %10 unwind label %13

10:                                               ; preds = %8
  %.not = icmp eq i32 %9, 0
  br i1 %.not, label %15, label %17

11:                                               ; preds = %6, %3
  %12 = landingpad { ptr, i32 }
          cleanup
  br label %24

13:                                               ; preds = %15, %8
  %14 = landingpad { ptr, i32 }
          cleanup
  br label %24

15:                                               ; preds = %10
  %16 = invoke noundef i32 @_ZN2cv8Stitcher20estimateCameraParamsEv(ptr noundef nonnull align 8 dereferenceable(560) %0)
          to label %17 unwind label %13

17:                                               ; preds = %15, %10
  %.08 = phi i32 [ 1, %10 ], [ %16, %15 ]
  %18 = getelementptr inbounds nuw i8, ptr %4, i64 8
  %19 = load i32, ptr %18, align 8, !tbaa !204
  %.not.i = icmp eq i32 %19, 0
  br i1 %.not.i, label %_ZN2cv5utils5trace7details6RegionD2Ev.exit, label %20

20:                                               ; preds = %17
  invoke void @_ZN2cv5utils5trace7details6Region7destroyEv(ptr noundef nonnull align 8 dereferenceable(12) %4)
          to label %_ZN2cv5utils5trace7details6RegionD2Ev.exit unwind label %21

21:                                               ; preds = %20
  %22 = landingpad { ptr, i32 }
          catch ptr null
  %23 = extractvalue { ptr, i32 } %22, 0
  call void @__clang_call_terminate(ptr %23) #29
  unreachable

_ZN2cv5utils5trace7details6RegionD2Ev.exit:       ; preds = %17, %20
  call void @llvm.lifetime.end.p0(i64 16, ptr nonnull %4) #26
  ret i32 %.08

24:                                               ; preds = %13, %11
  %.pn = phi { ptr, i32 } [ %14, %13 ], [ %12, %11 ]
  call void @_ZN2cv5utils5trace7details6RegionD2Ev(ptr noundef nonnull align 8 dereferenceable(12) %4) #26
  call void @llvm.lifetime.end.p0(i64 16, ptr nonnull %4) #26
  resume { ptr, i32 } %.pn
}